target datalayout = "e-m:e-p270:32:32-p271:32:32-p272:64:64-i64:64-i128:128-f80:128-n8:16:32:64-S128"
target triple = "x86_64-pc-linux-gnu"

%struct.RangeCoder = type { i32, i32, i32, i32, [256 x i8], [256 x i8], ptr, ptr, ptr, i32 }

; Function Attrs: inlinehint nounwind uwtable
define internal void @renorm_encoder(ptr noundef %0) #5 {
  %2 = alloca ptr, align 8
  %3 = alloca i32, align 4
  store ptr %0, ptr %2, align 8, !tbaa !4
  %4 = load ptr, ptr %2, align 8, !tbaa !4
  %5 = getelementptr inbounds nuw %struct.RangeCoder, ptr %4, i32 0, i32 0
  %6 = load i32, ptr %5, align 8, !tbaa !17
  %7 = sub nsw i32 %6, 65281
  %8 = icmp uge i32 %7, 255
  br i1 %8, label %9, label %59

9:                                                ; preds = %1
  call void @llvm.lifetime.start.p0(i64 4, ptr %3) #8
  %10 = load ptr, ptr %2, align 8, !tbaa !4
  %11 = getelementptr inbounds nuw %struct.RangeCoder, ptr %10, i32 0, i32 0
  %12 = load i32, ptr %11, align 8, !tbaa !17
  %13 = sub nsw i32 %12, 65281
  %14 = ashr i32 %13, 31
  store i32 %14, ptr %3, align 4, !tbaa !11
  %15 = load ptr, ptr %2, align 8, !tbaa !4
  %16 = getelementptr inbounds nuw %struct.RangeCoder, ptr %15, i32 0, i32 3
  %17 = load i32, ptr %16, align 4, !tbaa !20
  %18 = add nsw i32 %17, 1
  %19 = load i32, ptr %3, align 4, !tbaa !11
  %20 = add nsw i32 %18, %19
  %21 = trunc i32 %20 to i8
  %22 = load ptr, ptr %2, align 8, !tbaa !4
  %23 = getelementptr inbounds nuw %struct.RangeCoder, ptr %22, i32 0, i32 7
  %24 = load ptr, ptr %23, align 8, !tbaa !13
  store i8 %21, ptr %24, align 1, !tbaa !21
  %25 = load ptr, ptr %2, align 8, !tbaa !4
  %26 = getelementptr inbounds nuw %struct.RangeCoder, ptr %25, i32 0, i32 3
  %27 = load i32, ptr %26, align 4, !tbaa !20
  %28 = icmp sge i32 %27, 0
  %29 = zext i1 %28 to i32
  %30 = load ptr, ptr %2, align 8, !tbaa !4
  %31 = getelementptr inbounds nuw %struct.RangeCoder, ptr %30, i32 0, i32 7
  %32 = load ptr, ptr %31, align 8, !tbaa !13
  %33 = sext i32 %29 to i64
  %34 = getelementptr inbounds i8, ptr %32, i64 %33
  store ptr %34, ptr %31, align 8, !tbaa !13
  br label %35

35:                                               ; preds = %47, %9
  %36 = load ptr, ptr %2, align 8, !tbaa !4
  %37 = getelementptr inbounds nuw %struct.RangeCoder, ptr %36, i32 0, i32 2
  %38 = load i32, ptr %37, align 8, !tbaa !19
  %39 = icmp ne i32 %38, 0
  br i1 %39, label %40, label %52

40:                                               ; preds = %35
  %41 = load i32, ptr %3, align 4, !tbaa !11
  %42 = trunc i32 %41 to i8
  %43 = load ptr, ptr %2, align 8, !tbaa !4
  %44 = getelementptr inbounds nuw %struct.RangeCoder, ptr %43, i32 0, i32 7
  %45 = load ptr, ptr %44, align 8, !tbaa !13
  %46 = getelementptr inbounds nuw i8, ptr %45, i32 1
  store ptr %46, ptr %44, align 8, !tbaa !13
  store i8 %42, ptr %45, align 1, !tbaa !21
  br label %47

47:                                               ; preds = %40
  %48 = load ptr, ptr %2, align 8, !tbaa !4
  %49 = getelementptr inbounds nuw %struct.RangeCoder, ptr %48, i32 0, i32 2
  %50 = load i32, ptr %49, align 8, !tbaa !19
  %51 = add nsw i32 %50, -1
  store i32 %51, ptr %49, align 8, !tbaa !19
  br label %35, !llvm.loop !31

52:                                               ; preds = %35
  %53 = load ptr, ptr %2, align 8, !tbaa !4
  %54 = getelementptr inbounds nuw %struct.RangeCoder, ptr %53, i32 0, i32 0
  %55 = load i32, ptr %54, align 8, !tbaa !17
  %56 = ashr i32 %55, 8
  %57 = load ptr, ptr %2, align 8, !tbaa !4
  %58 = getelementptr inbounds nuw %struct.RangeCoder, ptr %57, i32 0, i32 3
  store i32 %56, ptr %58, align 4, !tbaa !20
  call void @llvm.lifetime.end.p0(i64 4, ptr %3) #8
  br label %64

59:                                               ; preds = %1
  %60 = load ptr, ptr %2, align 8, !tbaa !4
  %61 = getelementptr inbounds nuw %struct.RangeCoder, ptr %60, i32 0, i32 2
  %62 = load i32, ptr %61, align 8, !tbaa !19
  %63 = add nsw i32 %62, 1
  store i32 %63, ptr %61, align 8, !tbaa !19
  br label %64

64:                                               ; preds = %59, %52
  %65 = load ptr, ptr %2, align 8, !tbaa !4
  %66 = getelementptr inbounds nuw %struct.RangeCoder, ptr %65, i32 0, i32 0
  %67 = load i32, ptr %66, align 8, !tbaa !17
  %68 = and i32 %67, 255
  %69 = shl i32 %68, 8
  %70 = load ptr, ptr %2, align 8, !tbaa !4
  %71 = getelementptr inbounds nuw %struct.RangeCoder, ptr %70, i32 0, i32 0
  store i32 %69, ptr %71, align 8, !tbaa !17
  %72 = load ptr, ptr %2, align 8, !tbaa !4
  %73 = getelementptr inbounds nuw %struct.RangeCoder, ptr %72, i32 0, i32 1
  %74 = load i32, ptr %73, align 4, !tbaa !18
  %75 = shl i32 %74, 8
  store i32 %75, ptr %73, align 4, !tbaa !18
  ret void
}

; Function Attrs: inlinehint nounwind uwtable
define internal void @put_rac(ptr noundef %0, ptr noundef %1, i32 noundef %2) #5 {
  %4 = alloca ptr, align 8
  %5 = alloca ptr, align 8
  %6 = alloca i32, align 4
  %7 = alloca i32, align 4
  store ptr %0, ptr %4, align 8, !tbaa !4
  store ptr %1, ptr %5, align 8, !tbaa !9
  store i32 %2, ptr %6, align 4, !tbaa !11
  call void @llvm.lifetime.start.p0(i64 4, ptr %7) #8
  %8 = load ptr, ptr %4, align 8, !tbaa !4
  %9 = getelementptr inbounds nuw %struct.RangeCoder, ptr %8, i32 0, i32 1
  %10 = load i32, ptr %9, align 4, !tbaa !18
  %11 = load ptr, ptr %5, align 8, !tbaa !9
  %12 = load i8, ptr %11, align 1, !tbaa !21
  %13 = zext i8 %12 to i32
  %14 = mul nsw i32 %10, %13
  %15 = ashr i32 %14, 8
  store i32 %15, ptr %7, align 4, !tbaa !11
  %16 = load i32, ptr %6, align 4, !tbaa !11
  %17 = icmp ne i32 %16, 0
  br i1 %17, label %32, label %18

18:                                               ; preds = %3
  %19 = load i32, ptr %7, align 4, !tbaa !11
  %20 = load ptr, ptr %4, align 8, !tbaa !4
  %21 = getelementptr inbounds nuw %struct.RangeCoder, ptr %20, i32 0, i32 1
  %22 = load i32, ptr %21, align 4, !tbaa !18
  %23 = sub nsw i32 %22, %19
  store i32 %23, ptr %21, align 4, !tbaa !18
  %24 = load ptr, ptr %4, align 8, !tbaa !4
  %25 = getelementptr inbounds nuw %struct.RangeCoder, ptr %24, i32 0, i32 4
  %26 = load ptr, ptr %5, align 8, !tbaa !9
  %27 = load i8, ptr %26, align 1, !tbaa !21
  %28 = zext i8 %27 to i64
  %29 = getelementptr inbounds nuw [256 x i8], ptr %25, i64 0, i64 %28
  %30 = load i8, ptr %29, align 1, !tbaa !21
  %31 = load ptr, ptr %5, align 8, !tbaa !9
  store i8 %30, ptr %31, align 1, !tbaa !21
  br label %53

32:                                               ; preds = %3
  %33 = load ptr, ptr %4, align 8, !tbaa !4
  %34 = getelementptr inbounds nuw %struct.RangeCoder, ptr %33, i32 0, i32 1
  %35 = load i32, ptr %34, align 4, !tbaa !18
  %36 = load i32, ptr %7, align 4, !tbaa !11
  %37 = sub nsw i32 %35, %36
  %38 = load ptr, ptr %4, align 8, !tbaa !4
  %39 = getelementptr inbounds nuw %struct.RangeCoder, ptr %38, i32 0, i32 0
  %40 = load i32, ptr %39, align 8, !tbaa !17
  %41 = add nsw i32 %40, %37
  store i32 %41, ptr %39, align 8, !tbaa !17
  %42 = load i32, ptr %7, align 4, !tbaa !11
  %43 = load ptr, ptr %4, align 8, !tbaa !4
  %44 = getelementptr inbounds nuw %struct.RangeCoder, ptr %43, i32 0, i32 1
  store i32 %42, ptr %44, align 4, !tbaa !18
  %45 = load ptr, ptr %4, align 8, !tbaa !4
  %46 = getelementptr inbounds nuw %struct.RangeCoder, ptr %45, i32 0, i32 5
  %47 = load ptr, ptr %5, align 8, !tbaa !9
  %48 = load i8, ptr %47, align 1, !tbaa !21
  %49 = zext i8 %48 to i64
  %50 = getelementptr inbounds nuw [256 x i8], ptr %46, i64 0, i64 %49
  %51 = load i8, ptr %50, align 1, !tbaa !21
  %52 = load ptr, ptr %5, align 8, !tbaa !9
  store i8 %51, ptr %52, align 1, !tbaa !21
  br label %53

53:                                               ; preds = %32, %18
  %54 = load ptr, ptr %4, align 8, !tbaa !4
  %55 = getelementptr inbounds nuw %struct.RangeCoder, ptr %54, i32 0, i32 1
  %56 = load i32, ptr %55, align 4, !tbaa !18
  %57 = icmp slt i32 %56, 256
  br i1 %57, label %58, label %60

58:                                               ; preds = %53
  %59 = load ptr, ptr %4, align 8, !tbaa !4
  call void @renorm_encoder(ptr noundef %59)
  br label %60

60:                                               ; preds = %58, %53
  call void @llvm.lifetime.end.p0(i64 4, ptr %7) #8
  ret void
}

; Function Attrs: nounwind uwtable
define i32 @ff_rac_terminate(ptr noundef %0, i32 noundef %1) #2 {
  %3 = alloca ptr, align 8
  %4 = alloca i32, align 4
  %5 = alloca [1 x i8], align 1
  store ptr %0, ptr %3, align 8, !tbaa !4
  store i32 %1, ptr %4, align 4, !tbaa !11
  %6 = load i32, ptr %4, align 4, !tbaa !11
  %7 = icmp eq i32 %6, 1
  br i1 %7, label %8, label %11

8:                                                ; preds = %2
  %9 = load ptr, ptr %3, align 8, !tbaa !4
  store i8 -127, ptr %5, align 1, !tbaa !21
  %10 = getelementptr inbounds [1 x i8], ptr %5, i64 0, i64 0
  call void @put_rac(ptr noundef %9, ptr noundef %10, i32 noundef 0)
  br label %11

11:                                               ; preds = %8, %2
  %12 = load ptr, ptr %3, align 8, !tbaa !4
  %13 = getelementptr inbounds nuw %struct.RangeCoder, ptr %12, i32 0, i32 1
  store i32 255, ptr %13, align 4, !tbaa !18
  %14 = load ptr, ptr %3, align 8, !tbaa !4
  %15 = getelementptr inbounds nuw %struct.RangeCoder, ptr %14, i32 0, i32 0
  %16 = load i32, ptr %15, align 8, !tbaa !17
  %17 = add nsw i32 %16, 255
  store i32 %17, ptr %15, align 8, !tbaa !17
  %18 = load ptr, ptr %3, align 8, !tbaa !4
  call void @renorm_encoder(ptr noundef %18)
  %19 = load ptr, ptr %3, align 8, !tbaa !4
  %20 = getelementptr inbounds nuw %struct.RangeCoder, ptr %19, i32 0, i32 1
  store i32 255, ptr %20, align 4, !tbaa !18
  %21 = load ptr, ptr %3, align 8, !tbaa !4
  call void @renorm_encoder(ptr noundef %21)
  %22 = load ptr, ptr %3, align 8, !tbaa !4
  %23 = getelementptr inbounds nuw %struct.RangeCoder, ptr %22, i32 0, i32 7
  %24 = load ptr, ptr %23, align 8, !tbaa !13
  %25 = load ptr, ptr %3, align 8, !tbaa !4
  %26 = getelementptr inbounds nuw %struct.RangeCoder, ptr %25, i32 0, i32 6
  %27 = load ptr, ptr %26, align 8, !tbaa !15
  %28 = ptrtoint ptr %24 to i64
  %29 = ptrtoint ptr %27 to i64
  %30 = sub i64 %28, %29
  %31 = trunc i64 %30 to i32
  ret i32 %31
}