; Function Attrs: nofree norecurse nosync nounwind memory(write, argmem: readwrite, inaccessiblemem: none) uwtable
define i32 @ff_rac_terminate(ptr noundef captures(none) %0, i32 noundef %1) local_unnamed_addr #4 {
  %3 = icmp eq i32 %1, 1
  br i1 %3, label %4, label %.put_rac.exit_crit_edge

.put_rac.exit_crit_edge:                          ; preds = %2
  %.pre = load i32, ptr %0, align 8, !tbaa !13
  br label %put_rac.exit

4:                                                ; preds = %2
  %5 = getelementptr inbounds nuw i8, ptr %0, i64 4
  %6 = load i32, ptr %5, align 4, !tbaa !14
  %7 = mul nsw i32 %6, 129
  %8 = ashr i32 %7, 8
  %9 = sub nsw i32 %6, %8
  store i32 %9, ptr %5, align 4, !tbaa !14
  %10 = icmp slt i32 %9, 256
  %.pre14 = load i32, ptr %0, align 8, !tbaa !13
  br i1 %10, label %11, label %put_rac.exit

11:                                               ; preds = %4
  %12 = add nsw i32 %.pre14, -65281
  %13 = icmp ugt i32 %12, 254
  br i1 %13, label %14, label %38

14:                                               ; preds = %11
  %15 = ashr i32 %12, 31
  %16 = getelementptr inbounds nuw i8, ptr %0, i64 12
  %17 = load i32, ptr %16, align 4, !tbaa !16
  %18 = add nsw i32 %15, 1
  %19 = add i32 %18, %17
  %20 = trunc i32 %19 to i8
  %21 = getelementptr inbounds nuw i8, ptr %0, i64 536
  %22 = load ptr, ptr %21, align 8, !tbaa !4
  store i8 %20, ptr %22, align 1, !tbaa !17
  %23 = load i32, ptr %16, align 4, !tbaa !16
  %24 = icmp sgt i32 %23, -1
  %25 = load ptr, ptr %21, align 8, !tbaa !4
  %26 = zext i1 %24 to i64
  %27 = getelementptr inbounds nuw i8, ptr %25, i64 %26
  store ptr %27, ptr %21, align 8, !tbaa !4
  %28 = getelementptr inbounds nuw i8, ptr %0, i64 8
  %29 = load i32, ptr %28, align 8, !tbaa !15
  %.not16.i.i = icmp eq i32 %29, 0
  br i1 %.not16.i.i, label %._crit_edge.i.i, label %.lr.ph.i.i

.lr.ph.i.i:                                       ; preds = %14
  %30 = trunc nsw i32 %15 to i8
  br label %31

31:                                               ; preds = %31, %.lr.ph.i.i
  %32 = load ptr, ptr %21, align 8, !tbaa !4
  %33 = getelementptr inbounds nuw i8, ptr %32, i64 1
  store ptr %33, ptr %21, align 8, !tbaa !4
  store i8 %30, ptr %32, align 1, !tbaa !17
  %34 = load i32, ptr %28, align 8, !tbaa !15
  %35 = add nsw i32 %34, -1
  store i32 %35, ptr %28, align 8, !tbaa !15
  %.not.i.i = icmp eq i32 %35, 0
  br i1 %.not.i.i, label %._crit_edge.i.i, label %31, !llvm.loop !23

._crit_edge.i.i:                                  ; preds = %31, %14
  %36 = load i32, ptr %0, align 8, !tbaa !13
  %37 = ashr i32 %36, 8
  store i32 %37, ptr %16, align 4, !tbaa !16
  br label %renorm_encoder.exit.i

38:                                               ; preds = %11
  %39 = getelementptr inbounds nuw i8, ptr %0, i64 8
  %40 = load i32, ptr %39, align 8, !tbaa !15
  %41 = add nsw i32 %40, 1
  store i32 %41, ptr %39, align 8, !tbaa !15
  br label %renorm_encoder.exit.i

renorm_encoder.exit.i:                            ; preds = %38, %._crit_edge.i.i
  %42 = phi i32 [ %.pre14, %38 ], [ %36, %._crit_edge.i.i ]
  %43 = shl i32 %42, 8
  %44 = and i32 %43, 65280
  br label %put_rac.exit

put_rac.exit:                                     ; preds = %.put_rac.exit_crit_edge, %renorm_encoder.exit.i, %4
  %45 = phi i32 [ %.pre, %.put_rac.exit_crit_edge ], [ %44, %renorm_encoder.exit.i ], [ %.pre14, %4 ]
  %46 = getelementptr inbounds nuw i8, ptr %0, i64 4
  %47 = add nsw i32 %45, 255
  store i32 %47, ptr %0, align 8, !tbaa !13
  %48 = add nsw i32 %45, -65026
  %49 = icmp ugt i32 %48, 254
  br i1 %49, label %50, label %74

50:                                               ; preds = %put_rac.exit
  %51 = ashr i32 %48, 31
  %52 = getelementptr inbounds nuw i8, ptr %0, i64 12
  %53 = load i32, ptr %52, align 4, !tbaa !16
  %54 = add nsw i32 %51, 1
  %55 = add i32 %54, %53
  %56 = trunc i32 %55 to i8
  %57 = getelementptr inbounds nuw i8, ptr %0, i64 536
  %58 = load ptr, ptr %57, align 8, !tbaa !4
  store i8 %56, ptr %58, align 1, !tbaa !17
  %59 = load i32, ptr %52, align 4, !tbaa !16
  %60 = icmp sgt i32 %59, -1
  %61 = load ptr, ptr %57, align 8, !tbaa !4
  %62 = zext i1 %60 to i64
  %63 = getelementptr inbounds nuw i8, ptr %61, i64 %62
  store ptr %63, ptr %57, align 8, !tbaa !4
  %64 = getelementptr inbounds nuw i8, ptr %0, i64 8
  %65 = load i32, ptr %64, align 8, !tbaa !15
  %.not16.i = icmp eq i32 %65, 0
  br i1 %.not16.i, label %._crit_edge.i, label %.lr.ph.i

.lr.ph.i:                                         ; preds = %50
  %66 = trunc nsw i32 %51 to i8
  br label %67

67:                                               ; preds = %67, %.lr.ph.i
  %68 = load ptr, ptr %57, align 8, !tbaa !4
  %69 = getelementptr inbounds nuw i8, ptr %68, i64 1
  store ptr %69, ptr %57, align 8, !tbaa !4
  store i8 %66, ptr %68, align 1, !tbaa !17
  %70 = load i32, ptr %64, align 8, !tbaa !15
  %71 = add nsw i32 %70, -1
  store i32 %71, ptr %64, align 8, !tbaa !15
  %.not.i = icmp eq i32 %71, 0
  br i1 %.not.i, label %._crit_edge.i, label %67, !llvm.loop !23

._crit_edge.i:                                    ; preds = %67, %50
  %72 = load i32, ptr %0, align 8, !tbaa !13
  %73 = ashr i32 %72, 8
  store i32 %73, ptr %52, align 4, !tbaa !16
  br label %renorm_encoder.exit

74:                                               ; preds = %put_rac.exit
  %75 = getelementptr inbounds nuw i8, ptr %0, i64 8
  %76 = load i32, ptr %75, align 8, !tbaa !15
  %77 = add nsw i32 %76, 1
  store i32 %77, ptr %75, align 8, !tbaa !15
  %.phi.trans.insert = getelementptr inbounds nuw i8, ptr %0, i64 12
  %.pre15 = load i32, ptr %.phi.trans.insert, align 4, !tbaa !16
  br label %renorm_encoder.exit

renorm_encoder.exit:                              ; preds = %._crit_edge.i, %74
  %78 = phi i32 [ %.pre15, %74 ], [ %73, %._crit_edge.i ]
  %79 = phi i32 [ %47, %74 ], [ %72, %._crit_edge.i ]
  %80 = shl i32 %79, 8
  %81 = and i32 %80, 65280
  store i32 %81, ptr %0, align 8, !tbaa !13
  store i32 255, ptr %46, align 4, !tbaa !14
  %82 = getelementptr inbounds nuw i8, ptr %0, i64 12
  %83 = trunc i32 %78 to i8
  %84 = getelementptr inbounds nuw i8, ptr %0, i64 536
  %85 = load ptr, ptr %84, align 8, !tbaa !4
  store i8 %83, ptr %85, align 1, !tbaa !17
  %86 = load i32, ptr %82, align 4, !tbaa !16
  %87 = icmp sgt i32 %86, -1
  %88 = load ptr, ptr %84, align 8, !tbaa !4
  %89 = zext i1 %87 to i64
  %90 = getelementptr inbounds nuw i8, ptr %88, i64 %89
  store ptr %90, ptr %84, align 8, !tbaa !4
  %91 = getelementptr inbounds nuw i8, ptr %0, i64 8
  %92 = load i32, ptr %91, align 8, !tbaa !15
  %.not16.i8 = icmp eq i32 %92, 0
  br i1 %.not16.i8, label %._crit_edge.i11, label %.lr.ph.i9

.lr.ph.i9:                                        ; preds = %renorm_encoder.exit, %.lr.ph.i9
  %93 = load ptr, ptr %84, align 8, !tbaa !4
  %94 = getelementptr inbounds nuw i8, ptr %93, i64 1
  store ptr %94, ptr %84, align 8, !tbaa !4
  store i8 -1, ptr %93, align 1, !tbaa !17
  %95 = load i32, ptr %91, align 8, !tbaa !15
  %96 = add nsw i32 %95, -1
  store i32 %96, ptr %91, align 8, !tbaa !15
  %.not.i10 = icmp eq i32 %96, 0
  br i1 %.not.i10, label %._crit_edge.i11.loopexit, label %.lr.ph.i9, !llvm.loop !23

._crit_edge.i11.loopexit:                         ; preds = %.lr.ph.i9
  %.pre16 = load ptr, ptr %84, align 8, !tbaa !4
  br label %._crit_edge.i11

._crit_edge.i11:                                  ; preds = %._crit_edge.i11.loopexit, %renorm_encoder.exit
  %97 = phi ptr [ %.pre16, %._crit_edge.i11.loopexit ], [ %90, %renorm_encoder.exit ]
  %98 = load i32, ptr %0, align 8, !tbaa !13
  %99 = ashr i32 %98, 8
  store i32 %99, ptr %82, align 4, !tbaa !16
  %100 = shl i32 %98, 8
  %101 = and i32 %100, 65280
  store i32 %101, ptr %0, align 8, !tbaa !13
  %102 = load i32, ptr %46, align 4, !tbaa !14
  %103 = shl i32 %102, 8
  store i32 %103, ptr %46, align 4, !tbaa !14
  %104 = getelementptr inbounds nuw i8, ptr %0, i64 528
  %105 = load ptr, ptr %104, align 8, !tbaa !11
  %106 = ptrtoint ptr %97 to i64
  %107 = ptrtoint ptr %105 to i64
  %108 = sub i64 %106, %107
  %109 = trunc i64 %108 to i32
  ret i32 %109
}